; Function Attrs: mustprogress uwtable
define internal void @"_ZN5boost4asio6detail17executor_function8completeINS1_7binder2IZZZZ4mainENK3$_0clEvENKUlRKNS_6system10error_codeEE_clES9_ENKUlvE_clEvEUlS9_mE_S7_mEESaIvEEEvPNS2_9impl_baseEb"(ptr noundef %0, i1 noundef zeroext %1) #9 align 2 personality ptr @__gxx_personality_v0 {
  %3 = alloca %"class.std::allocator.61", align 1
  %4 = alloca %"struct.boost::asio::detail::executor_function::impl<boost::asio::detail::binder2<(lambda at /home/dtcxzyw/WorkSpace/Projects/compilers/llvm-opt-benchmark/bench/msgpack/msgpack-c/example/boost/asio_send_recv_zlib.cpp:81:25), boost::system::error_code, unsigned long>, std::allocator<void>>::ptr", align 8
  %5 = alloca %"class.boost::asio::detail::binder2", align 8
  call void @llvm.lifetime.start.p0(i64 1, ptr nonnull %3) #37
  call void @llvm.lifetime.start.p0(i64 24, ptr nonnull %4) #37
  store ptr %3, ptr %4, align 8, !tbaa !957
  %6 = getelementptr inbounds nuw i8, ptr %4, i64 8
  %7 = getelementptr inbounds nuw i8, ptr %4, i64 16
  call void @llvm.lifetime.start.p0(i64 80, ptr nonnull %5) #37
  %8 = getelementptr inbounds nuw i8, ptr %0, i64 8
  call void @llvm.memcpy.p0.p0.i64(ptr noundef nonnull align 8 dereferenceable(80) %5, ptr noundef nonnull readonly align 8 dereferenceable(80) %8, i64 56, i1 false), !tbaa.struct !828
  %9 = getelementptr inbounds nuw i8, ptr %5, i64 56
  %10 = getelementptr inbounds nuw i8, ptr %0, i64 64
  call void @llvm.memcpy.p0.p0.i64(ptr noundef nonnull align 8 dereferenceable(16) %9, ptr noundef nonnull readonly align 8 dereferenceable(16) %10, i64 16, i1 false), !tbaa.struct !286
  %11 = getelementptr inbounds nuw i8, ptr %5, i64 72
  %12 = getelementptr inbounds nuw i8, ptr %0, i64 80
  %13 = load i64, ptr %12, align 8, !tbaa !835
  store i64 %13, ptr %11, align 8, !tbaa !835
  store ptr null, ptr %7, align 8, !tbaa !953
  %14 = call align 8 ptr @llvm.threadlocal.address.p0(ptr align 8 @_ZN5boost4asio6detail15keyword_tss_ptrINS1_10call_stackINS1_14thread_contextENS1_16thread_info_baseEE7contextEE6value_E)
  %15 = load ptr, ptr %14, align 8, !tbaa !332
  %.not.i.i.i = icmp eq ptr %15, null
  br i1 %.not.i.i.i, label %_ZN5boost4asio6detail10call_stackINS1_14thread_contextENS1_16thread_info_baseEE3topEv.exit.thread.i.i, label %_ZN5boost4asio6detail10call_stackINS1_14thread_contextENS1_16thread_info_baseEE3topEv.exit.i.i

_ZN5boost4asio6detail10call_stackINS1_14thread_contextENS1_16thread_info_baseEE3topEv.exit.i.i: ; preds = %2
  %16 = getelementptr inbounds nuw i8, ptr %15, i64 8
  %17 = load ptr, ptr %16, align 8, !tbaa !331
  %.not.i.i = icmp eq ptr %17, null
  br i1 %.not.i.i, label %_ZN5boost4asio6detail10call_stackINS1_14thread_contextENS1_16thread_info_baseEE3topEv.exit.thread.i.i, label %18

18:                                               ; preds = %_ZN5boost4asio6detail10call_stackINS1_14thread_contextENS1_16thread_info_baseEE3topEv.exit.i.i
  %19 = getelementptr inbounds nuw i8, ptr %17, i64 16
  %20 = load ptr, ptr %19, align 8, !tbaa !117
  %21 = icmp eq ptr %20, null
  br i1 %21, label %22, label %_ZN5boost4asio6detail10call_stackINS1_14thread_contextENS1_16thread_info_baseEE3topEv.exit.thread.i.i

22:                                               ; preds = %18
  %23 = getelementptr inbounds nuw i8, ptr %0, i64 96
  %24 = load i8, ptr %23, align 1, !tbaa !19
  store i8 %24, ptr %0, align 1, !tbaa !19
  store ptr %0, ptr %19, align 8, !tbaa !117
  br label %25

_ZN5boost4asio6detail10call_stackINS1_14thread_contextENS1_16thread_info_baseEE3topEv.exit.thread.i.i: ; preds = %18, %_ZN5boost4asio6detail10call_stackINS1_14thread_contextENS1_16thread_info_baseEE3topEv.exit.i.i, %2
  call void @_ZdlPv(ptr noundef nonnull %0) #37
  br label %25

25:                                               ; preds = %_ZN5boost4asio6detail10call_stackINS1_14thread_contextENS1_16thread_info_baseEE3topEv.exit.thread.i.i, %22
  store ptr null, ptr %6, align 8, !tbaa !956
  br i1 %1, label %26, label %"_ZN5boost4asio6detail17executor_function4implINS1_7binder2IZZZZ4mainENK3$_0clEvENKUlRKNS_6system10error_codeEE_clES9_ENKUlvE_clEvEUlS9_mE_S7_mEESaIvEE3ptrD2Ev.exit"

26:                                               ; preds = %25
  invoke fastcc void @"_ZN5boost4asio6detail7binder2IZZZZ4mainENK3$_0clEvENKUlRKNS_6system10error_codeEE_clES7_ENKUlvE_clEvEUlS7_mE_S5_mEclEv"(ptr noundef nonnull align 8 dereferenceable(80) %5)
          to label %"_ZN5boost4asio6detail17executor_function4implINS1_7binder2IZZZZ4mainENK3$_0clEvENKUlRKNS_6system10error_codeEE_clES9_ENKUlvE_clEvEUlS9_mE_S7_mEESaIvEE3ptrD2Ev.exit" unwind label %27

27:                                               ; preds = %26
  %28 = landingpad { ptr, i32 }
          cleanup
  call void @llvm.lifetime.end.p0(i64 80, ptr nonnull %5) #37
  call fastcc void @"_ZN5boost4asio6detail17executor_function4implINS1_7binder2IZZZZ4mainENK3$_0clEvENKUlRKNS_6system10error_codeEE_clES9_ENKUlvE_clEvEUlS9_mE_S7_mEESaIvEE3ptrD2Ev"(ptr noundef nonnull align 8 dereferenceable(24) %4) #37
  call void @llvm.lifetime.end.p0(i64 24, ptr nonnull %4) #37
  call void @llvm.lifetime.end.p0(i64 1, ptr nonnull %3) #37
  resume { ptr, i32 } %28

"_ZN5boost4asio6detail17executor_function4implINS1_7binder2IZZZZ4mainENK3$_0clEvENKUlRKNS_6system10error_codeEE_clES9_ENKUlvE_clEvEUlS9_mE_S7_mEESaIvEE3ptrD2Ev.exit": ; preds = %25, %26
  call void @llvm.lifetime.end.p0(i64 80, ptr nonnull %5) #37
  call void @llvm.lifetime.end.p0(i64 24, ptr nonnull %4) #37
  call void @llvm.lifetime.end.p0(i64 1, ptr nonnull %3) #37
  ret void
}